; Function Attrs: mustprogress nofree nounwind willreturn memory(read, inaccessiblemem: none) uwtable
define hidden noundef i32 @_ZNK18OpenImageIO_v2_6_09SgiOutput8supportsENS_17basic_string_viewIcSt11char_traitsIcEEE(ptr nocapture nonnull readnone align 8 %this, ptr nocapture noundef readonly %feature) unnamed_addr #6 align 2 personality ptr @__gxx_personality_v0 {
entry:
  %0 = load ptr, ptr %feature, align 8
  %m_len.i.i = getelementptr inbounds i8, ptr %feature, i64 8
  %1 = load i64, ptr %m_len.i.i, align 8
  switch i64 %1, label %lor.end [
    i64 5, label %_ZNSt11char_traitsIcE7compareEPKcS2_m.exit.i.i
    i64 9, label %_ZNSt11char_traitsIcE7compareEPKcS2_m.exit.i.i15
    i64 7, label %_ZNSt11char_traitsIcE7compareEPKcS2_m.exit.i.i32
  ]

_ZNSt11char_traitsIcE7compareEPKcS2_m.exit.i.i:   ; preds = %entry
  %bcmp.i = tail call i32 @bcmp(ptr noundef nonnull dereferenceable(5) %0, ptr noundef nonnull dereferenceable(5) @.str.6, i64 5)
  %cmp6.not.i.i = icmp eq i32 %bcmp.i, 0
  br label %lor.end

_ZNSt11char_traitsIcE7compareEPKcS2_m.exit.i.i15: ; preds = %entry
  %bcmp.i16 = tail call i32 @bcmp(ptr %0, ptr nonnull @.str.7, i64 %1)
  %cmp6.not.i.i17 = icmp eq i32 %bcmp.i16, 0
  br label %lor.end

_ZNSt11char_traitsIcE7compareEPKcS2_m.exit.i.i32: ; preds = %entry
  %bcmp.i33 = tail call i32 @bcmp(ptr %0, ptr nonnull @.str.8, i64 %1)
  %cmp6.not.i.i34 = icmp eq i32 %bcmp.i33, 0
  br label %lor.end

lor.end:                                          ; preds = %_ZNSt11char_traitsIcE7compareEPKcS2_m.exit.i.i15, %_ZNSt11char_traitsIcE7compareEPKcS2_m.exit.i.i, %_ZNSt11char_traitsIcE7compareEPKcS2_m.exit.i.i32, %entry
  %conv.shrunk = phi i1 [ false, %entry ], [ %cmp6.not.i.i34, %_ZNSt11char_traitsIcE7compareEPKcS2_m.exit.i.i32 ], [ %cmp6.not.i.i, %_ZNSt11char_traitsIcE7compareEPKcS2_m.exit.i.i ], [ %cmp6.not.i.i17, %_ZNSt11char_traitsIcE7compareEPKcS2_m.exit.i.i15 ]
  %conv = zext i1 %conv.shrunk to i32
  ret i32 %conv
}